; Function Attrs: mustprogress uwtable
define hidden noundef nonnull align 8 dereferenceable(8) ptr @_ZN6dimacslsERSoRKNS_11drat_recordE(ptr noundef nonnull align 8 dereferenceable(8) %out, ptr noundef nonnull align 8 dereferenceable(24) %r) local_unnamed_addr #3 personality ptr @__gxx_personality_v0 {
entry:
  %fn = alloca %"class.std::function", align 8
  %pp = alloca %"struct.dimacs::drat_pp", align 8
  %_M_manager.i.i = getelementptr inbounds i8, ptr %fn, i64 16
  %_M_invoker.i = getelementptr inbounds i8, ptr %fn, i64 24
  call void @llvm.memset.p0.i64(ptr noundef nonnull align 8 dereferenceable(16) %fn, i8 0, i64 16, i1 false)
  store ptr @"_ZNSt17_Function_handlerIF6symboliEZN6dimacslsERSoRKNS2_11drat_recordEE3$_0E9_M_invokeERKSt9_Any_dataOi", ptr %_M_invoker.i, align 8
  store ptr @"_ZNSt17_Function_handlerIF6symboliEZN6dimacslsERSoRKNS2_11drat_recordEE3$_0E10_M_managerERSt9_Any_dataRKS9_St18_Manager_operation", ptr %_M_manager.i.i, align 8
  store ptr %r, ptr %pp, align 8
  %th3.i = getelementptr inbounds i8, ptr %pp, i64 8
  store ptr %fn, ptr %th3.i, align 8
  %call = invoke noundef nonnull align 8 dereferenceable(8) ptr @_ZN6dimacslsERSoRKNS_7drat_ppE(ptr noundef nonnull align 8 dereferenceable(8) %out, ptr noundef nonnull align 8 dereferenceable(16) %pp)
          to label %invoke.cont1 unwind label %lpad

invoke.cont1:                                     ; preds = %entry
  %0 = load ptr, ptr %_M_manager.i.i, align 8
  %tobool.not.i.i = icmp eq ptr %0, null
  br i1 %tobool.not.i.i, label %_ZNSt8functionIF6symboliEED2Ev.exit, label %if.then.i.i

if.then.i.i:                                      ; preds = %invoke.cont1
  %call.i.i = invoke noundef zeroext i1 %0(ptr noundef nonnull align 8 dereferenceable(16) %fn, ptr noundef nonnull align 8 dereferenceable(16) %fn, i32 noundef 3)
          to label %_ZNSt8functionIF6symboliEED2Ev.exit unwind label %terminate.lpad.i.i

terminate.lpad.i.i:                               ; preds = %if.then.i.i
  %1 = landingpad { ptr, i32 }
          catch ptr null
  %2 = extractvalue { ptr, i32 } %1, 0
  call void @__clang_call_terminate(ptr %2) #18
  unreachable

_ZNSt8functionIF6symboliEED2Ev.exit:              ; preds = %invoke.cont1, %if.then.i.i
  ret ptr %call

lpad:                                             ; preds = %entry
  %3 = landingpad { ptr, i32 }
          cleanup
  %4 = load ptr, ptr %_M_manager.i.i, align 8
  %tobool.not.i.i3 = icmp eq ptr %4, null
  br i1 %tobool.not.i.i3, label %_ZNSt8functionIF6symboliEED2Ev.exit7, label %if.then.i.i4

if.then.i.i4:                                     ; preds = %lpad
  %call.i.i5 = invoke noundef zeroext i1 %4(ptr noundef nonnull align 8 dereferenceable(16) %fn, ptr noundef nonnull align 8 dereferenceable(16) %fn, i32 noundef 3)
          to label %_ZNSt8functionIF6symboliEED2Ev.exit7 unwind label %terminate.lpad.i.i6

terminate.lpad.i.i6:                              ; preds = %if.then.i.i4
  %5 = landingpad { ptr, i32 }
          catch ptr null
  %6 = extractvalue { ptr, i32 } %5, 0
  call void @__clang_call_terminate(ptr %6) #18
  unreachable

_ZNSt8functionIF6symboliEED2Ev.exit7:             ; preds = %lpad, %if.then.i.i4
  resume { ptr, i32 } %3
}